; Function Attrs: mustprogress nounwind uwtable
define dso_local void @_ZNK4llvm3pdb21PDBSymbolCompilandEnv8getValueB5cxx11Ev(ptr dead_on_unwind noalias writable sret(%"class.std::__cxx11::basic_string") align 8 %0, ptr noundef nonnull readonly align 8 captures(none) dereferenceable(32) %1) local_unnamed_addr #0 align 2 {
  %3 = alloca %"struct.llvm::pdb::Variant", align 8
  %4 = alloca %"class.std::allocator", align 1
  %5 = getelementptr inbounds nuw i8, ptr %1, i64 24
  %6 = load ptr, ptr %5, align 8
  %7 = load ptr, ptr %6, align 8
  %8 = getelementptr inbounds nuw i8, ptr %7, i64 640
  %9 = load ptr, ptr %8, align 8
  call void %9(ptr dead_on_unwind nonnull writable sret(%"struct.llvm::pdb::Variant") align 8 %3, ptr noundef nonnull align 8 dereferenceable(8) %6) #6
  %10 = load i32, ptr %3, align 8
  %.not = icmp eq i32 %10, 13
  br i1 %.not, label %12, label %11

11:                                               ; preds = %2
  call void @_ZNSt7__cxx1112basic_stringIcSt11char_traitsIcESaIcEEC1Ev(ptr noundef nonnull align 8 dereferenceable(32) %0) #6
  br label %20

12:                                               ; preds = %2
  %13 = getelementptr inbounds nuw i8, ptr %3, i64 8
  %14 = load ptr, ptr %13, align 8
  call void @_ZNSaIcEC1Ev(ptr noundef nonnull align 1 dereferenceable(1) %4) #6
  %15 = call noundef ptr @_ZNSt7__cxx1112basic_stringIcSt11char_traitsIcESaIcEE13_M_local_dataEv(ptr noundef nonnull align 8 dereferenceable(32) %0) #6
  call void @_ZNSt7__cxx1112basic_stringIcSt11char_traitsIcESaIcEE12_Alloc_hiderC1EPcRKS3_(ptr noundef nonnull align 8 dereferenceable(32) %0, ptr noundef %15, ptr noundef nonnull align 1 dereferenceable(1) %4) #6
  %16 = icmp eq ptr %14, null
  br i1 %16, label %17, label %_ZNSt7__cxx1112basic_stringIcSt11char_traitsIcESaIcEEC2IS3_EEPKcRKS3_.exit

17:                                               ; preds = %12
  call void @_ZSt19__throw_logic_errorPKc(ptr noundef nonnull @.str) #7
  unreachable

_ZNSt7__cxx1112basic_stringIcSt11char_traitsIcESaIcEEC2IS3_EEPKcRKS3_.exit: ; preds = %12
  %18 = call noundef i64 @strlen(ptr noundef nonnull dereferenceable(1) %14) #6
  %19 = getelementptr inbounds i8, ptr %14, i64 %18
  call void @_ZNSt7__cxx1112basic_stringIcSt11char_traitsIcESaIcEE12_M_constructIPKcEEvT_S8_St20forward_iterator_tag(ptr noundef nonnull align 8 dereferenceable(32) %0, ptr noundef nonnull %14, ptr noundef nonnull %19)
  call void @_ZNSaIcED1Ev(ptr noundef nonnull align 1 dereferenceable(1) %4) #6
  br label %20

20:                                               ; preds = %_ZNSt7__cxx1112basic_stringIcSt11char_traitsIcESaIcEEC2IS3_EEPKcRKS3_.exit, %11
  %21 = load i32, ptr %3, align 8
  %22 = icmp eq i32 %21, 13
  br i1 %22, label %23, label %_ZN4llvm3pdb7VariantD2Ev.exit

23:                                               ; preds = %20
  %24 = getelementptr inbounds nuw i8, ptr %3, i64 8
  %25 = load ptr, ptr %24, align 8
  %26 = icmp eq ptr %25, null
  br i1 %26, label %_ZN4llvm3pdb7VariantD2Ev.exit, label %27

27:                                               ; preds = %23
  call void @_ZdaPv(ptr noundef nonnull %25) #8
  br label %_ZN4llvm3pdb7VariantD2Ev.exit

_ZN4llvm3pdb7VariantD2Ev.exit:                    ; preds = %20, %23, %27
  ret void
}